target datalayout = "e-m:e-p270:32:32-p271:32:32-p272:64:64-i64:64-i128:128-f80:128-n8:16:32:64-S128"
target triple = "x86_64-pc-linux-gnu"

%struct.expert_field = type { i32, i32 }

@hf_isis_lsp_clv_sr_cap_sid = internal global i32 0, align 4
@hf_isis_lsp_clv_sr_cap_label = internal global i32 0, align 4
@ett_isis_lsp_clv_sr_sid_label = internal global i32 0, align 4
@ei_isis_lsp_subtlv = internal global %struct.expert_field zeroinitializer, align 4
@.str.916 = private unnamed_addr constant [22 x i8] c"SID/Label (t=1, l=%u)\00", align 1
@.str.917 = private unnamed_addr constant [52 x i8] c"SID/Label SubTlv - Bad length: Type: %d, Length: %d\00", align 1

; Function Attrs: null_pointer_is_valid sspstrong uwtable
define internal void @dissect_lsp_sr_sid_label_clv(ptr noundef %0, ptr noundef %1, ptr noundef %2, i32 noundef %3, i8 noundef zeroext %4) #0 {
  %6 = alloca ptr, align 8
  %7 = alloca ptr, align 8
  %8 = alloca ptr, align 8
  %9 = alloca i32, align 4
  %10 = alloca i8, align 1
  %11 = alloca ptr, align 8
  store ptr %0, ptr %6, align 8
  store ptr %1, ptr %7, align 8
  store ptr %2, ptr %8, align 8
  store i32 %3, ptr %9, align 4
  store i8 %4, ptr %10, align 1
  call void @llvm.lifetime.start.p0(i64 8, ptr %11) #4
  %12 = load ptr, ptr %8, align 8
  %13 = load ptr, ptr %6, align 8
  %14 = load i32, ptr %9, align 4
  %15 = sub i32 %14, 2
  %16 = load i8, ptr %10, align 1
  %17 = zext i8 %16 to i32
  %18 = add i32 %17, 2
  %19 = load i32, ptr @ett_isis_lsp_clv_sr_sid_label, align 4
  %20 = load i8, ptr %10, align 1
  %21 = zext i8 %20 to i32
  %22 = call ptr (ptr, ptr, i32, i32, i32, ptr, ptr, ...) @proto_tree_add_subtree_format(ptr noundef %12, ptr noundef %13, i32 noundef %15, i32 noundef %18, i32 noundef %19, ptr noundef null, ptr noundef @.str.916, i32 noundef %21)
  store ptr %22, ptr %11, align 8
  %23 = load i8, ptr %10, align 1
  %24 = zext i8 %23 to i32
  switch i32 %24, label %41 [
    i32 4, label %25
    i32 3, label %33
  ]

25:                                               ; preds = %5
  %26 = load ptr, ptr %11, align 8
  %27 = load i32, ptr @hf_isis_lsp_clv_sr_cap_sid, align 4
  %28 = load ptr, ptr %6, align 8
  %29 = load i32, ptr %9, align 4
  %30 = load i8, ptr %10, align 1
  %31 = zext i8 %30 to i32
  %32 = call ptr @proto_tree_add_item(ptr noundef %26, i32 noundef %27, ptr noundef %28, i32 noundef %29, i32 noundef %31, i32 noundef 0)
  br label %51

33:                                               ; preds = %5
  %34 = load ptr, ptr %11, align 8
  %35 = load i32, ptr @hf_isis_lsp_clv_sr_cap_label, align 4
  %36 = load ptr, ptr %6, align 8
  %37 = load i32, ptr %9, align 4
  %38 = load i8, ptr %10, align 1
  %39 = zext i8 %38 to i32
  %40 = call ptr @proto_tree_add_item(ptr noundef %34, i32 noundef %35, ptr noundef %36, i32 noundef %37, i32 noundef %39, i32 noundef 0)
  br label %51

41:                                               ; preds = %5
  %42 = load ptr, ptr %11, align 8
  %43 = load ptr, ptr %7, align 8
  %44 = load ptr, ptr %6, align 8
  %45 = load i32, ptr %9, align 4
  %46 = load i8, ptr %10, align 1
  %47 = zext i8 %46 to i32
  %48 = load i8, ptr %10, align 1
  %49 = zext i8 %48 to i32
  %50 = call ptr (ptr, ptr, ptr, ptr, i32, i32, ptr, ...) @proto_tree_add_expert_format(ptr noundef %42, ptr noundef %43, ptr noundef @ei_isis_lsp_subtlv, ptr noundef %44, i32 noundef %45, i32 noundef %47, ptr noundef @.str.917, i32 noundef 1, i32 noundef %49)
  br label %51

51:                                               ; preds = %41, %33, %25
  call void @llvm.lifetime.end.p0(i64 8, ptr %11) #4
  ret void
}