; Function Attrs: null_pointer_is_valid sspstrong uwtable
define internal fastcc void @dissect_lsp_sr_sid_label_clv(ptr noundef %0, ptr noundef %1, ptr noundef %2, i32 noundef %3, i8 noundef zeroext %4) unnamed_addr #0 {
  %6 = add i32 %3, -2
  %7 = zext i8 %4 to i32
  %8 = add nuw nsw i32 %7, 2
  %9 = load i32, ptr @ett_isis_lsp_clv_sr_sid_label, align 4
  %10 = tail call ptr (ptr, ptr, i32, i32, i32, ptr, ptr, ...) @proto_tree_add_subtree_format(ptr noundef %2, ptr noundef %0, i32 noundef %6, i32 noundef %8, i32 noundef %9, ptr noundef null, ptr noundef nonnull @.str.916, i32 noundef %7)
  switch i8 %4, label %17 [
    i8 4, label %11
    i8 3, label %14
  ]

11:                                               ; preds = %5
  %12 = load i32, ptr @hf_isis_lsp_clv_sr_cap_sid, align 4
  %13 = tail call ptr @proto_tree_add_item(ptr noundef %10, i32 noundef %12, ptr noundef %0, i32 noundef %3, i32 noundef 4, i32 noundef 0)
  br label %19

14:                                               ; preds = %5
  %15 = load i32, ptr @hf_isis_lsp_clv_sr_cap_label, align 4
  %16 = tail call ptr @proto_tree_add_item(ptr noundef %10, i32 noundef %15, ptr noundef %0, i32 noundef %3, i32 noundef 3, i32 noundef 0)
  br label %19

17:                                               ; preds = %5
  %18 = tail call ptr (ptr, ptr, ptr, ptr, i32, i32, ptr, ...) @proto_tree_add_expert_format(ptr noundef %10, ptr noundef %1, ptr noundef nonnull @ei_isis_lsp_subtlv, ptr noundef %0, i32 noundef %3, i32 noundef %7, ptr noundef nonnull @.str.917, i32 noundef 1, i32 noundef %7)
  br label %19

19:                                               ; preds = %17, %14, %11
  ret void
}